; Function Attrs: nofree norecurse nosync nounwind memory(argmem: read) uwtable
define { ptr, i64 } @stbtt__get_subr(ptr readonly %0, i64 %1, i32 noundef %2) local_unnamed_addr #7 {
  %.sroa.7.8.extract.shift = lshr i64 %1, 32
  %.sroa.7.8.extract.trunc = trunc nuw i64 %.sroa.7.8.extract.shift to i32
  %4 = tail call i32 @llvm.smin.i32(i32 %.sroa.7.8.extract.trunc, i32 0)
  br label %5

5:                                                ; preds = %stbtt__buf_get8.exit.i.i, %3
  %.sroa.3.0 = phi i32 [ %4, %3 ], [ %.sroa.3.1, %stbtt__buf_get8.exit.i.i ]
  %6 = phi i32 [ %4, %3 ], [ %14, %stbtt__buf_get8.exit.i.i ]
  %.07.i.i = phi i32 [ 0, %3 ], [ %16, %stbtt__buf_get8.exit.i.i ]
  %.056.i.i = phi i32 [ 0, %3 ], [ %15, %stbtt__buf_get8.exit.i.i ]
  %7 = shl i32 %.056.i.i, 8
  %.not.i.i.i = icmp slt i32 %6, %.sroa.7.8.extract.trunc
  br i1 %.not.i.i.i, label %8, label %stbtt__buf_get8.exit.i.i

8:                                                ; preds = %5
  %9 = add nsw i32 %6, 1
  %10 = sext i32 %6 to i64
  %11 = getelementptr inbounds i8, ptr %0, i64 %10
  %12 = load i8, ptr %11, align 1, !tbaa !12
  %13 = zext i8 %12 to i32
  br label %stbtt__buf_get8.exit.i.i

stbtt__buf_get8.exit.i.i:                         ; preds = %8, %5
  %.sroa.3.1 = phi i32 [ %9, %8 ], [ %.sroa.3.0, %5 ]
  %14 = phi i32 [ %9, %8 ], [ %6, %5 ]
  %.0.i.i.i = phi i32 [ %13, %8 ], [ 0, %5 ]
  %15 = or disjoint i32 %.0.i.i.i, %7
  %16 = add nuw nsw i32 %.07.i.i, 1
  %exitcond.not.i.i = icmp eq i32 %16, 2
  br i1 %exitcond.not.i.i, label %stbtt__cff_index_count.exit, label %5, !llvm.loop !13

stbtt__cff_index_count.exit:                      ; preds = %stbtt__buf_get8.exit.i.i
  %17 = icmp sgt i32 %15, 33899
  %18 = icmp sgt i32 %15, 1239
  %spec.select = select i1 %18, i32 1131, i32 107
  %.0 = select i1 %17, i32 32768, i32 %spec.select
  %19 = add nsw i32 %.0, %2
  %20 = icmp sgt i32 %19, -1
  %.not = icmp slt i32 %19, %15
  %or.cond = and i1 %20, %.not
  br i1 %or.cond, label %21, label %23

21:                                               ; preds = %stbtt__cff_index_count.exit
  %.sroa.7.8.insert.shift = and i64 %1, -4294967296
  %.sroa.3.8.insert.ext = zext i32 %.sroa.3.1 to i64
  %.sroa.3.8.insert.insert = or disjoint i64 %.sroa.7.8.insert.shift, %.sroa.3.8.insert.ext
  %22 = tail call { ptr, i64 } @stbtt__cff_index_get(ptr %0, i64 %.sroa.3.8.insert.insert, i32 noundef %19)
  br label %23

23:                                               ; preds = %stbtt__cff_index_count.exit, %21
  %.pn = phi { ptr, i64 } [ %22, %21 ], [ zeroinitializer, %stbtt__cff_index_count.exit ]
  ret { ptr, i64 } %.pn
}